; Function Attrs: nounwind uwtable
define dso_local zeroext i1 @ExecCheck(ptr noundef %0, ptr noundef %1) local_unnamed_addr #0 {
  %3 = alloca i8, align 1
  call void @llvm.lifetime.start.p0(i64 1, ptr nonnull %3) #10
  %4 = icmp eq ptr %0, null
  br i1 %4, label %15, label %5

5:                                                ; preds = %2
  %6 = getelementptr inbounds nuw i8, ptr %1, i64 40
  %7 = load ptr, ptr %6, align 8
  %8 = load ptr, ptr @CurrentMemoryContext, align 8
  store ptr %7, ptr @CurrentMemoryContext, align 8
  %9 = getelementptr inbounds nuw i8, ptr %0, i64 32
  %10 = load ptr, ptr %9, align 8
  %11 = call i64 %10(ptr noundef nonnull %0, ptr noundef %1, ptr noundef nonnull %3) #10
  store ptr %8, ptr @CurrentMemoryContext, align 8
  %12 = load i8, ptr %3, align 1, !range !4, !noundef !5
  %13 = trunc nuw i8 %12 to i1
  %14 = icmp ne i64 %11, 0
  %spec.select = select i1 %13, i1 true, i1 %14
  br label %15

15:                                               ; preds = %5, %2
  %.0 = phi i1 [ true, %2 ], [ %spec.select, %5 ]
  call void @llvm.lifetime.end.p0(i64 1, ptr nonnull %3) #10
  ret i1 %.0
}